; Function Attrs: mustprogress nofree norecurse nosync nounwind willreturn memory(readwrite, argmem: none, inaccessiblemem: none) uwtable
define void @duckdb_je_background_thread_ctl_init(ptr noundef readnone captures(none) %0) local_unnamed_addr #7 {
  %2 = load ptr, ptr @pthread_create_fptr, align 8, !tbaa !36
  %.not.i = icmp eq ptr %2, null
  br i1 %.not.i, label %3, label %pthread_create_fptr_init.exit

3:                                                ; preds = %1
  store ptr @pthread_create, ptr @pthread_create_fptr, align 8
  br label %pthread_create_fptr_init.exit

pthread_create_fptr_init.exit:                    ; preds = %1, %3
  ret void
}